Certificate:
    Data:
        Version: 3 (0x2)
        Serial Number: 4096 (0x1000)
    Signature Algorithm: sha1WithRSAEncryption
        Issuer: C=EE, ST=Tallinn, O=Polite Ping, CN=*
        Validity
            Not Before: May 12 15:27:06 2015 GMT
            Not After : May  9 15:27:06 2025 GMT
        Subject: C=EE, ST=Tallinn, O=Polite Ping, CN=your.domain.com/emailAddress=your@email
        Subject Public Key Info:
            Public Key Algorithm: rsaEncryption
                Public-Key: (1024 bit)
                Modulus:
                    00:a7:e2:f6:72:fd:39:a9:49:ec:ad:aa:c0:3c:77:
                    42:f1:ee:72:e0:a8:3f:7d:0c:4d:3c:94:56:4c:08:
                    4c:22:d8:66:bc:52:56:69:4d:46:d7:ea:fa:3d:31:
                    a8:89:d5:3b:e2:ff:e5:9c:d3:be:97:2c:3e:ce:9e:
                    16:0c:65:6e:4c:ee:99:b5:20:a7:9f:8a:86:36:d6:
                    56:d5:7c:a8:c1:f0:e0:87:38:bc:45:80:7e:16:47:
                    72:a2:96:83:ae:fe:00:66:71:99:20:d6:49:84:83:
                    a8:af:bb:58:5b:1b:c4:19:f9:71:17:1d:28:6f:be:
                    77:cd:e7:e0:de:9c:60:2b:17
                Exponent: 65537 (0x10001)
        X509v3 extensions:
            X509v3 Basic Constraints: 
                CA:FALSE
            Netscape Comment: 
                OpenSSL Generated Certificate
            X509v3 Subject Key Identifier: 
                11:4F:A0:EE:F0:8A:51:5B:C2:DE:E8:C6:57:DF:0D:4F:76:86:2F:EB
            X509v3 Authority Key Identifier: 
                keyid:7F:C5:C8:E8:A1:80:9B:9C:6A:D8:85:56:9A:23:6B:8C:AD:36:94:DE

    Signature Algorithm: sha1WithRSAEncryption
         87:2b:18:4e:b1:7d:1d:34:7a:61:96:74:b8:42:ff:ce:10:25:
         c3:c1:be:b9:ab:5d:de:fe:65:2f:68:31:f5:50:7d:e4:55:c8:
         aa:04:f5:29:77:98:f1:81:14:01:f0:4a:0b:a3:a6:e1:c7:b8:
         72:ef:2e:2d:a1:34:45:5f:5d:fd:25:60:f6:4f:ea:7a:d4:43:
         e8:e1:25:8c:95:62:5e:6d:5b:df:61:50:fb:30:9b:a9:85:fa:
         30:b5:a7:89:2b:8e:08:4c:41:dd:70:a0:19:d5:a9:78:d1:5a:
         38:e6:d0:11:3c:05:cb:5c:4b:85:80:a6:e0:80:41:aa:0c:51:
         9f:9e
-----BEGIN CERTIFICATE-----
MIICnTCCAgagAwIBAgICEAAwDQYJKoZIhvcNAQEFBQAwQTELMAkGA1UEBhMCRUUx
EDAOBgNVBAgMB1RhbGxpbm4xFDASBgNVBAoMC1BvbGl0ZSBQaW5nMQowCAYDVQQD
DAEqMB4XDTE1MDUxMjE1MjcwNloXDTI1MDUwOTE1MjcwNlowajELMAkGA1UEBhMC
RUUxEDAOBgNVBAgMB1RhbGxpbm4xFDASBgNVBAoMC1BvbGl0ZSBQaW5nMRgwFgYD
VQQDDA95b3VyLmRvbWFpbi5jb20xGTAXBgkqhkiG9w0BCQEWCnlvdXJAZW1haWww
gZ8wDQYJKoZIhvcNAQEBBQADgY0AMIGJAoGBAKfi9nL9OalJ7K2qwDx3QvHucuCo
P30MTTyUVkwITCLYZrxSVmlNRtfq+j0xqInVO+L/5ZzTvpcsPs6eFgxlbkzumbUg
p5+KhjbWVtV8qMHw4Ic4vEWAfhZHcqKWg67+AGZxmSDWSYSDqK+7WFsbxBn5cRcd
KG++d83n4N6cYCsXAgMBAAGjezB5MAkGA1UdEwQCMAAwLAYJYIZIAYb4QgENBB8W
HU9wZW5TU0wgR2VuZXJhdGVkIENlcnRpZmljYXRlMB0GA1UdDgQWBBQRT6Du8IpR
W8Le6MZX3w1PdoYv6zAfBgNVHSMEGDAWgBR/xcjooYCbnGrYhVaaI2uMrTaU3jAN
BgkqhkiG9w0BAQUFAAOBgQCHKxhOsX0dNHphlnS4Qv/OECXDwb65q13e/mUvaDH1
UH3kVciqBPUpd5jxgRQB8EoLo6bhx7hy7y4toTRFX139JWD2T+p61EPo4SWMlWJe
bVvfYVD7MJuphfowtaeJK44ITEHdcKAZ1al40Vo45tARPAXLXEuFgKbggEGqDFGf
ng==
-----END CERTIFICATE-----
